target datalayout = "e-m:e-p270:32:32-p271:32:32-p272:64:64-i64:64-i128:128-f80:128-n8:16:32:64-S128"
target triple = "x86_64-pc-linux-gnu"

%struct._packet_info = type { ptr, ptr, i32, i32, %struct.nstime_t, %struct.nstime_t, %struct.nstime_t, i8, ptr, ptr, ptr, ptr, %struct._address, %struct._address, %struct._address, %struct._address, %struct._address, %struct._address, i32, ptr, i8, [3 x i8], %struct.anon, i32, i32, i32, i32, ptr, i8, ptr, ptr, i16, i16, i32, i32, i16, i32, i32, ptr, ptr, ptr, i8, i8, i16, i16, i16, i32, i16, i16, ptr, ptr, ptr, ptr, ptr, i32, i32 }
%struct.nstime_t = type { i64, i32 }
%struct._address = type { i32, i32, ptr, ptr }
%struct.anon = type { i8, [3 x i8] }

@hf_pn_ptcp_header = internal global i32 0, align 4
@hf_pn_ptcp_seq_id = internal global i32 0, align 4
@hf_pn_ptcp_delay1ns = internal global i32 0, align 4
@ett_pn_ptcp_header = internal global i32 0, align 4
@.str.174 = private unnamed_addr constant [26 x i8] c"%s, Seq=%3u, Delay=%11uns\00", align 1
@.str.175 = private unnamed_addr constant [28 x i8] c"%s: Sequence=%u, Delay=%uns\00", align 1
@.str.176 = private unnamed_addr constant [26 x i8] c": Sequence=%u, Delay=%uns\00", align 1

; Function Attrs: null_pointer_is_valid sspstrong uwtable
define internal i32 @dissect_PNPTCP_DelayPDU(ptr noundef %0, i32 noundef %1, ptr noundef %2, ptr noundef %3, ptr noundef %4, i16 noundef zeroext %5, ptr noundef %6, ptr noundef %7) #0 {
  %9 = alloca ptr, align 8
  %10 = alloca i32, align 4
  %11 = alloca ptr, align 8
  %12 = alloca ptr, align 8
  %13 = alloca ptr, align 8
  %14 = alloca i16, align 2
  %15 = alloca ptr, align 8
  %16 = alloca ptr, align 8
  %17 = alloca ptr, align 8
  %18 = alloca ptr, align 8
  %19 = alloca i16, align 2
  %20 = alloca i32, align 4
  store ptr %0, ptr %9, align 8
  store i32 %1, ptr %10, align 4
  store ptr %2, ptr %11, align 8
  store ptr %3, ptr %12, align 8
  store ptr %4, ptr %13, align 8
  store i16 %5, ptr %14, align 2
  store ptr %6, ptr %15, align 8
  store ptr %7, ptr %16, align 8
  call void @llvm.lifetime.start.p0(i64 8, ptr %17) #3
  call void @llvm.lifetime.start.p0(i64 8, ptr %18) #3
  call void @llvm.lifetime.start.p0(i64 2, ptr %19) #3
  call void @llvm.lifetime.start.p0(i64 4, ptr %20) #3
  %21 = load ptr, ptr %12, align 8
  %22 = load i32, ptr @hf_pn_ptcp_header, align 4
  %23 = load ptr, ptr %9, align 8
  %24 = load i32, ptr %10, align 4
  %25 = call ptr @proto_tree_add_item(ptr noundef %21, i32 noundef %22, ptr noundef %23, i32 noundef %24, i32 noundef 20, i32 noundef 0)
  store ptr %25, ptr %17, align 8
  %26 = load ptr, ptr %17, align 8
  %27 = load i32, ptr @ett_pn_ptcp_header, align 4
  %28 = call ptr @proto_item_add_subtree(ptr noundef %26, i32 noundef %27)
  store ptr %28, ptr %18, align 8
  %29 = load ptr, ptr %9, align 8
  %30 = load i32, ptr %10, align 4
  %31 = load ptr, ptr %11, align 8
  %32 = load ptr, ptr %18, align 8
  %33 = call i32 @dissect_pn_padding(ptr noundef %29, i32 noundef %30, ptr noundef %31, ptr noundef %32, i32 noundef 12)
  store i32 %33, ptr %10, align 4
  %34 = load ptr, ptr %9, align 8
  %35 = load i32, ptr %10, align 4
  %36 = load ptr, ptr %11, align 8
  %37 = load ptr, ptr %18, align 8
  %38 = load i32, ptr @hf_pn_ptcp_seq_id, align 4
  %39 = call i32 @dissect_pn_uint16(ptr noundef %34, i32 noundef %35, ptr noundef %36, ptr noundef %37, i32 noundef %38, ptr noundef %19)
  store i32 %39, ptr %10, align 4
  %40 = load ptr, ptr %9, align 8
  %41 = load i32, ptr %10, align 4
  %42 = load ptr, ptr %11, align 8
  %43 = load ptr, ptr %18, align 8
  %44 = call i32 @dissect_pn_align4(ptr noundef %40, i32 noundef %41, ptr noundef %42, ptr noundef %43)
  store i32 %44, ptr %10, align 4
  %45 = load ptr, ptr %12, align 8
  %46 = load i32, ptr @hf_pn_ptcp_delay1ns, align 4
  %47 = load ptr, ptr %9, align 8
  %48 = load i32, ptr %10, align 4
  %49 = call ptr @proto_tree_add_item_ret_uint(ptr noundef %45, i32 noundef %46, ptr noundef %47, i32 noundef %48, i32 noundef 4, i32 noundef 0, ptr noundef %20)
  %50 = load i32, ptr %10, align 4
  %51 = add i32 %50, 4
  store i32 %51, ptr %10, align 4
  %52 = load ptr, ptr %11, align 8
  %53 = getelementptr inbounds nuw %struct._packet_info, ptr %52, i32 0, i32 1
  %54 = load ptr, ptr %53, align 8
  %55 = load ptr, ptr %15, align 8
  %56 = load i16, ptr %19, align 2
  %57 = zext i16 %56 to i32
  %58 = load i32, ptr %20, align 4
  call void (ptr, i32, ptr, ...) @col_append_fstr(ptr noundef %54, i32 noundef 25, ptr noundef @.str.174, ptr noundef %55, i32 noundef %57, i32 noundef %58)
  %59 = load ptr, ptr %13, align 8
  %60 = load ptr, ptr %16, align 8
  %61 = load i16, ptr %19, align 2
  %62 = zext i16 %61 to i32
  %63 = load i32, ptr %20, align 4
  call void (ptr, ptr, ...) @proto_item_append_text(ptr noundef %59, ptr noundef @.str.175, ptr noundef %60, i32 noundef %62, i32 noundef %63)
  %64 = load ptr, ptr %17, align 8
  %65 = load i16, ptr %19, align 2
  %66 = zext i16 %65 to i32
  %67 = load i32, ptr %20, align 4
  call void (ptr, ptr, ...) @proto_item_append_text(ptr noundef %64, ptr noundef @.str.176, i32 noundef %66, i32 noundef %67)
  %68 = load ptr, ptr %9, align 8
  %69 = load i32, ptr %10, align 4
  %70 = load ptr, ptr %11, align 8
  %71 = load ptr, ptr %12, align 8
  %72 = load ptr, ptr %13, align 8
  %73 = load i16, ptr %14, align 2
  %74 = call i32 @dissect_PNPTCP_blocks(ptr noundef %68, i32 noundef %69, ptr noundef %70, ptr noundef %71, ptr noundef %72, i16 noundef zeroext %73)
  store i32 %74, ptr %10, align 4
  %75 = load i32, ptr %10, align 4
  call void @llvm.lifetime.end.p0(i64 4, ptr %20) #3
  call void @llvm.lifetime.end.p0(i64 2, ptr %19) #3
  call void @llvm.lifetime.end.p0(i64 8, ptr %18) #3
  call void @llvm.lifetime.end.p0(i64 8, ptr %17) #3
  ret i32 %75
}